target datalayout = "e-m:e-p270:32:32-p271:32:32-p272:64:64-i64:64-i128:128-f80:128-n8:16:32:64-S128"
target triple = "x86_64-pc-linux-gnu"

%struct.mi_commit_mask_s = type { [8 x i64] }
%struct.mi_segment_s = type { %struct.mi_memid_s, i8, i8, i64, ptr, i64, %struct.mi_commit_mask_s, %struct.mi_commit_mask_s, ptr, i8, i8, i64, i64, i64, i64, ptr, ptr, i64, i64, i32, i64, i64, [513 x %struct.mi_page_s] }
%struct.mi_memid_s = type { %union.anon, i8, i8, i8, i32 }
%union.anon = type { %struct.mi_memid_os_info }
%struct.mi_memid_os_info = type { ptr, i64 }
%struct.mi_page_s = type { i32, i32, i8, i16, i16, %union.mi_page_flags_s, i8, ptr, ptr, i16, i8, i8, i64, ptr, i64, i64, ptr, ptr, [1 x ptr] }
%union.mi_page_flags_s = type { i8 }

; Function Attrs: inlinehint nounwind uwtable
define internal i64 @_mi_align_up(i64 noundef %0, i64 noundef %1) #2 {
  %3 = alloca i64, align 8
  %4 = alloca i64, align 8
  %5 = alloca i64, align 8
  %6 = alloca i64, align 8
  %7 = alloca i32, align 4
  store i64 %0, ptr %4, align 8, !tbaa !8
  store i64 %1, ptr %5, align 8, !tbaa !8
  call void @llvm.lifetime.start.p0(i64 8, ptr %6) #8
  %8 = load i64, ptr %5, align 8, !tbaa !8
  %9 = sub i64 %8, 1
  store i64 %9, ptr %6, align 8, !tbaa !8
  %10 = load i64, ptr %5, align 8, !tbaa !8
  %11 = load i64, ptr %6, align 8, !tbaa !8
  %12 = and i64 %10, %11
  %13 = icmp eq i64 %12, 0
  br i1 %13, label %14, label %21

14:                                               ; preds = %2
  %15 = load i64, ptr %4, align 8, !tbaa !8
  %16 = load i64, ptr %6, align 8, !tbaa !8
  %17 = add i64 %15, %16
  %18 = load i64, ptr %6, align 8, !tbaa !8
  %19 = xor i64 %18, -1
  %20 = and i64 %17, %19
  store i64 %20, ptr %3, align 8
  store i32 1, ptr %7, align 4
  br label %29

21:                                               ; preds = %2
  %22 = load i64, ptr %4, align 8, !tbaa !8
  %23 = load i64, ptr %6, align 8, !tbaa !8
  %24 = add i64 %22, %23
  %25 = load i64, ptr %5, align 8, !tbaa !8
  %26 = udiv i64 %24, %25
  %27 = load i64, ptr %5, align 8, !tbaa !8
  %28 = mul i64 %26, %27
  store i64 %28, ptr %3, align 8
  store i32 1, ptr %7, align 4
  br label %29

29:                                               ; preds = %21, %14
  call void @llvm.lifetime.end.p0(i64 8, ptr %6) #8
  %30 = load i64, ptr %3, align 8
  ret i64 %30
}

; Function Attrs: nounwind uwtable
define internal ptr @_mi_segment_page_start_from_slice(ptr noundef %0, ptr noundef %1, i64 noundef %2, ptr noundef %3) #0 {
  %5 = alloca ptr, align 8
  %6 = alloca ptr, align 8
  %7 = alloca i64, align 8
  %8 = alloca ptr, align 8
  %9 = alloca i64, align 8
  %10 = alloca i64, align 8
  %11 = alloca ptr, align 8
  %12 = alloca i64, align 8
  %13 = alloca i64, align 8
  store ptr %0, ptr %5, align 8, !tbaa !19
  store ptr %1, ptr %6, align 8, !tbaa !21
  store i64 %2, ptr %7, align 8, !tbaa !8
  store ptr %3, ptr %8, align 8, !tbaa !13
  call void @llvm.lifetime.start.p0(i64 8, ptr %9) #8
  %14 = load ptr, ptr %6, align 8, !tbaa !21
  %15 = load ptr, ptr %5, align 8, !tbaa !19
  %16 = getelementptr inbounds nuw %struct.mi_segment_s, ptr %15, i32 0, i32 22
  %17 = getelementptr inbounds [513 x %struct.mi_page_s], ptr %16, i64 0, i64 0
  %18 = ptrtoint ptr %14 to i64
  %19 = ptrtoint ptr %17 to i64
  %20 = sub i64 %18, %19
  %21 = sdiv exact i64 %20, 96
  store i64 %21, ptr %9, align 8, !tbaa !8
  call void @llvm.lifetime.start.p0(i64 8, ptr %10) #8
  %22 = load ptr, ptr %6, align 8, !tbaa !21
  %23 = getelementptr inbounds nuw %struct.mi_page_s, ptr %22, i32 0, i32 0
  %24 = load i32, ptr %23, align 8, !tbaa !25
  %25 = zext i32 %24 to i64
  %26 = mul i64 %25, 65536
  store i64 %26, ptr %10, align 8, !tbaa !8
  call void @llvm.lifetime.start.p0(i64 8, ptr %11) #8
  %27 = load ptr, ptr %5, align 8, !tbaa !19
  %28 = load i64, ptr %9, align 8, !tbaa !8
  %29 = mul i64 %28, 65536
  %30 = getelementptr inbounds nuw i8, ptr %27, i64 %29
  store ptr %30, ptr %11, align 8, !tbaa !23
  call void @llvm.lifetime.start.p0(i64 8, ptr %12) #8
  store i64 0, ptr %12, align 8, !tbaa !8
  %31 = load i64, ptr %7, align 8, !tbaa !8
  %32 = icmp ugt i64 %31, 0
  br i1 %32, label %33, label %57

33:                                               ; preds = %4
  %34 = load i64, ptr %7, align 8, !tbaa !8
  %35 = icmp ule i64 %34, 131072
  br i1 %35, label %36, label %57

36:                                               ; preds = %33
  call void @llvm.lifetime.start.p0(i64 8, ptr %13) #8
  %37 = load i64, ptr %7, align 8, !tbaa !8
  %38 = load ptr, ptr %11, align 8, !tbaa !23
  %39 = ptrtoint ptr %38 to i64
  %40 = load i64, ptr %7, align 8, !tbaa !8
  %41 = urem i64 %39, %40
  %42 = sub i64 %37, %41
  store i64 %42, ptr %13, align 8, !tbaa !8
  %43 = load i64, ptr %13, align 8, !tbaa !8
  %44 = load i64, ptr %7, align 8, !tbaa !8
  %45 = icmp ult i64 %43, %44
  br i1 %45, label %46, label %56

46:                                               ; preds = %36
  %47 = load i64, ptr %10, align 8, !tbaa !8
  %48 = load i64, ptr %7, align 8, !tbaa !8
  %49 = load i64, ptr %13, align 8, !tbaa !8
  %50 = add i64 %48, %49
  %51 = icmp uge i64 %47, %50
  br i1 %51, label %52, label %56

52:                                               ; preds = %46
  %53 = load i64, ptr %13, align 8, !tbaa !8
  %54 = load i64, ptr %12, align 8, !tbaa !8
  %55 = add i64 %54, %53
  store i64 %55, ptr %12, align 8, !tbaa !8
  br label %56

56:                                               ; preds = %52, %46, %36
  call void @llvm.lifetime.end.p0(i64 8, ptr %13) #8
  br label %57

57:                                               ; preds = %56, %33, %4
  %58 = load i64, ptr %7, align 8, !tbaa !8
  %59 = icmp uge i64 %58, 8
  br i1 %59, label %60, label %77

60:                                               ; preds = %57
  %61 = load i64, ptr %7, align 8, !tbaa !8
  %62 = icmp ule i64 %61, 64
  br i1 %62, label %63, label %68

63:                                               ; preds = %60
  %64 = load i64, ptr %7, align 8, !tbaa !8
  %65 = mul i64 3, %64
  %66 = load i64, ptr %12, align 8, !tbaa !8
  %67 = add i64 %66, %65
  store i64 %67, ptr %12, align 8, !tbaa !8
  br label %76

68:                                               ; preds = %60
  %69 = load i64, ptr %7, align 8, !tbaa !8
  %70 = icmp ule i64 %69, 512
  br i1 %70, label %71, label %75

71:                                               ; preds = %68
  %72 = load i64, ptr %7, align 8, !tbaa !8
  %73 = load i64, ptr %12, align 8, !tbaa !8
  %74 = add i64 %73, %72
  store i64 %74, ptr %12, align 8, !tbaa !8
  br label %75

75:                                               ; preds = %71, %68
  br label %76

76:                                               ; preds = %75, %63
  br label %77

77:                                               ; preds = %76, %57
  %78 = load i64, ptr %12, align 8, !tbaa !8
  %79 = call i64 @_mi_align_up(i64 noundef %78, i64 noundef 16) #9
  store i64 %79, ptr %12, align 8, !tbaa !8
  %80 = load ptr, ptr %8, align 8, !tbaa !13
  %81 = icmp ne ptr %80, null
  br i1 %81, label %82, label %87

82:                                               ; preds = %77
  %83 = load i64, ptr %10, align 8, !tbaa !8
  %84 = load i64, ptr %12, align 8, !tbaa !8
  %85 = sub i64 %83, %84
  %86 = load ptr, ptr %8, align 8, !tbaa !13
  store i64 %85, ptr %86, align 8, !tbaa !8
  br label %87

87:                                               ; preds = %82, %77
  %88 = load ptr, ptr %11, align 8, !tbaa !23
  %89 = load i64, ptr %12, align 8, !tbaa !8
  %90 = getelementptr inbounds nuw i8, ptr %88, i64 %89
  call void @llvm.lifetime.end.p0(i64 8, ptr %12) #8
  call void @llvm.lifetime.end.p0(i64 8, ptr %11) #8
  call void @llvm.lifetime.end.p0(i64 8, ptr %10) #8
  call void @llvm.lifetime.end.p0(i64 8, ptr %9) #8
  ret ptr %90
}

; Function Attrs: inlinehint nounwind uwtable
define internal i64 @mi_page_block_size(ptr noundef %0) #2 {
  %2 = alloca ptr, align 8
  store ptr %0, ptr %2, align 8, !tbaa !21
  %3 = load ptr, ptr %2, align 8, !tbaa !21
  %4 = getelementptr inbounds nuw %struct.mi_page_s, ptr %3, i32 0, i32 12
  %5 = load i64, ptr %4, align 8, !tbaa !30
  ret i64 %5
}

; Function Attrs: inlinehint nounwind uwtable
define internal ptr @mi_page_to_slice(ptr noundef %0) #2 {
  %2 = alloca ptr, align 8
  store ptr %0, ptr %2, align 8, !tbaa !21
  %3 = load ptr, ptr %2, align 8, !tbaa !21
  ret ptr %3
}

; Function Attrs: nounwind uwtable
define hidden ptr @_mi_segment_page_start(ptr noundef %0, ptr noundef %1, ptr noundef %2) #0 {
  %4 = alloca ptr, align 8
  %5 = alloca ptr, align 8
  %6 = alloca ptr, align 8
  %7 = alloca ptr, align 8
  %8 = alloca ptr, align 8
  store ptr %0, ptr %4, align 8, !tbaa !19
  store ptr %1, ptr %5, align 8, !tbaa !21
  store ptr %2, ptr %6, align 8, !tbaa !13
  call void @llvm.lifetime.start.p0(i64 8, ptr %7) #8
  %9 = load ptr, ptr %5, align 8, !tbaa !21
  %10 = call ptr @mi_page_to_slice(ptr noundef %9) #9
  store ptr %10, ptr %7, align 8, !tbaa !21
  call void @llvm.lifetime.start.p0(i64 8, ptr %8) #8
  %11 = load ptr, ptr %4, align 8, !tbaa !19
  %12 = load ptr, ptr %7, align 8, !tbaa !21
  %13 = load ptr, ptr %5, align 8, !tbaa !21
  %14 = call i64 @mi_page_block_size(ptr noundef %13) #9
  %15 = load ptr, ptr %6, align 8, !tbaa !13
  %16 = call ptr @_mi_segment_page_start_from_slice(ptr noundef %11, ptr noundef %12, i64 noundef %14, ptr noundef %15) #9
  store ptr %16, ptr %8, align 8, !tbaa !23
  %17 = load ptr, ptr %8, align 8, !tbaa !23
  call void @llvm.lifetime.end.p0(i64 8, ptr %8) #8
  call void @llvm.lifetime.end.p0(i64 8, ptr %7) #8
  ret ptr %17
}