; Function Attrs: mustprogress nofree norecurse nosync nounwind willreturn memory(argmem: readwrite) uwtable
define hidden ptr @_mi_segment_page_start(ptr noundef %0, ptr noundef %1, ptr noundef writeonly %2) local_unnamed_addr #3 {
  %4 = getelementptr i8, ptr %1, i64 40
  %.val = load i64, ptr %4, align 8, !tbaa !14
  %5 = getelementptr inbounds nuw i8, ptr %0, i64 288
  %6 = ptrtoint ptr %1 to i64
  %7 = ptrtoint ptr %5 to i64
  %8 = sub i64 %6, %7
  %9 = sdiv exact i64 %8, 96
  %10 = load i32, ptr %1, align 8, !tbaa !22
  %11 = zext i32 %10 to i64
  %12 = shl nuw nsw i64 %11, 16
  %13 = shl i64 %9, 16
  %14 = getelementptr inbounds nuw i8, ptr %0, i64 %13
  %15 = add i64 %.val, -1
  %or.cond.i = icmp ult i64 %15, 131072
  br i1 %or.cond.i, label %16, label %22

16:                                               ; preds = %3
  %17 = ptrtoint ptr %14 to i64
  %18 = urem i64 %17, %.val
  %19 = sub nsw i64 %.val, %18
  %20 = icmp uge i64 %19, %.val
  %21 = add nuw nsw i64 %19, %.val
  %.not.i = icmp ult i64 %12, %21
  %or.cond35.i = select i1 %20, i1 true, i1 %.not.i
  %.1.i = select i1 %or.cond35.i, i64 0, i64 %19
  br label %22

22:                                               ; preds = %16, %3
  %.0.i = phi i64 [ %.1.i, %16 ], [ 0, %3 ]
  %23 = icmp ugt i64 %.val, 7
  br i1 %23, label %24, label %32

24:                                               ; preds = %22
  %25 = icmp ult i64 %.val, 65
  br i1 %25, label %26, label %29

26:                                               ; preds = %24
  %27 = mul nuw nsw i64 %.val, 3
  %28 = add nuw nsw i64 %.0.i, %27
  br label %32

29:                                               ; preds = %24
  %30 = icmp ult i64 %.val, 513
  %31 = select i1 %30, i64 %.val, i64 0
  %spec.select.i = add nuw nsw i64 %.0.i, %31
  br label %32

32:                                               ; preds = %29, %26, %22
  %.2.i = phi i64 [ %28, %26 ], [ %.0.i, %22 ], [ %spec.select.i, %29 ]
  %33 = add nsw i64 %.2.i, 15
  %34 = and i64 %33, -16
  %.not34.i = icmp eq ptr %2, null
  br i1 %.not34.i, label %_mi_segment_page_start_from_slice.exit, label %35

35:                                               ; preds = %32
  %36 = sub i64 %12, %34
  store i64 %36, ptr %2, align 8, !tbaa !3
  br label %_mi_segment_page_start_from_slice.exit

_mi_segment_page_start_from_slice.exit:           ; preds = %32, %35
  %37 = getelementptr inbounds nuw i8, ptr %14, i64 %34
  ret ptr %37
}